target datalayout = "e-m:e-p270:32:32-p271:32:32-p272:64:64-i64:64-i128:128-f80:128-n8:16:32:64-S128"
target triple = "x86_64-pc-linux-gnu"

%"class.o3dgc::Adaptive_Data_Model" = type <{ ptr, ptr, ptr, i32, i32, i32, i32, i32, i32, i32, [4 x i8] }>

; Function Attrs: mustprogress nounwind uwtable
define hidden void @_ZN5o3dgc19Adaptive_Data_Model5resetEv(ptr noundef nonnull align 8 dereferenceable(52) %0) #3 align 2 {
  %2 = alloca ptr, align 8
  %3 = alloca i32, align 4
  store ptr %0, ptr %2, align 8
  %4 = load ptr, ptr %2, align 8
  %5 = getelementptr inbounds nuw %"class.o3dgc::Adaptive_Data_Model", ptr %4, i32 0, i32 6
  %6 = load i32, ptr %5, align 4
  %7 = icmp eq i32 %6, 0
  br i1 %7, label %8, label %9

8:                                                ; preds = %1
  br label %36

9:                                                ; preds = %1
  %10 = getelementptr inbounds nuw %"class.o3dgc::Adaptive_Data_Model", ptr %4, i32 0, i32 3
  store i32 0, ptr %10, align 8
  %11 = getelementptr inbounds nuw %"class.o3dgc::Adaptive_Data_Model", ptr %4, i32 0, i32 6
  %12 = load i32, ptr %11, align 4
  %13 = getelementptr inbounds nuw %"class.o3dgc::Adaptive_Data_Model", ptr %4, i32 0, i32 4
  store i32 %12, ptr %13, align 4
  call void @llvm.lifetime.start.p0(i64 4, ptr %3) #12
  store i32 0, ptr %3, align 4
  br label %14

14:                                               ; preds = %26, %9
  %15 = load i32, ptr %3, align 4
  %16 = getelementptr inbounds nuw %"class.o3dgc::Adaptive_Data_Model", ptr %4, i32 0, i32 6
  %17 = load i32, ptr %16, align 4
  %18 = icmp ult i32 %15, %17
  br i1 %18, label %20, label %19

19:                                               ; preds = %14
  call void @llvm.lifetime.end.p0(i64 4, ptr %3) #12
  br label %29

20:                                               ; preds = %14
  %21 = getelementptr inbounds nuw %"class.o3dgc::Adaptive_Data_Model", ptr %4, i32 0, i32 1
  %22 = load ptr, ptr %21, align 8
  %23 = load i32, ptr %3, align 4
  %24 = zext i32 %23 to i64
  %25 = getelementptr inbounds nuw i32, ptr %22, i64 %24
  store i32 1, ptr %25, align 4
  br label %26

26:                                               ; preds = %20
  %27 = load i32, ptr %3, align 4
  %28 = add i32 %27, 1
  store i32 %28, ptr %3, align 4
  br label %14, !llvm.loop !25

29:                                               ; preds = %19
  call void @_ZN5o3dgc19Adaptive_Data_Model6updateEb(ptr noundef nonnull align 8 dereferenceable(52) %4, i1 noundef zeroext false)
  %30 = getelementptr inbounds nuw %"class.o3dgc::Adaptive_Data_Model", ptr %4, i32 0, i32 6
  %31 = load i32, ptr %30, align 4
  %32 = add i32 %31, 6
  %33 = lshr i32 %32, 1
  %34 = getelementptr inbounds nuw %"class.o3dgc::Adaptive_Data_Model", ptr %4, i32 0, i32 4
  store i32 %33, ptr %34, align 4
  %35 = getelementptr inbounds nuw %"class.o3dgc::Adaptive_Data_Model", ptr %4, i32 0, i32 5
  store i32 %33, ptr %35, align 8
  br label %36

36:                                               ; preds = %29, %8
  ret void
}