; Function Attrs: mustprogress nofree norecurse nosync nounwind memory(readwrite, inaccessiblemem: write) uwtable
define hidden void @_ZN5o3dgc19Adaptive_Data_Model5resetEv(ptr noundef nonnull align 8 captures(none) dereferenceable(52) %0) local_unnamed_addr #3 align 2 {
  %2 = getelementptr inbounds nuw i8, ptr %0, i64 36
  %3 = load i32, ptr %2, align 4
  %4 = icmp eq i32 %3, 0
  br i1 %4, label %18, label %.lr.ph

.lr.ph:                                           ; preds = %1
  %5 = getelementptr inbounds nuw i8, ptr %0, i64 24
  store i32 0, ptr %5, align 8
  %6 = getelementptr inbounds nuw i8, ptr %0, i64 28
  store i32 %3, ptr %6, align 4
  %7 = getelementptr inbounds nuw i8, ptr %0, i64 8
  br label %12

._crit_edge:                                      ; preds = %12
  tail call void @_ZN5o3dgc19Adaptive_Data_Model6updateEb(ptr noundef nonnull align 8 dereferenceable(52) %0, i1 noundef zeroext false)
  %8 = load i32, ptr %2, align 4
  %9 = add i32 %8, 6
  %10 = lshr i32 %9, 1
  store i32 %10, ptr %6, align 4
  %11 = getelementptr inbounds nuw i8, ptr %0, i64 32
  store i32 %10, ptr %11, align 8
  br label %18

12:                                               ; preds = %.lr.ph, %12
  %indvars.iv = phi i64 [ 0, %.lr.ph ], [ %indvars.iv.next, %12 ]
  %13 = load ptr, ptr %7, align 8
  %14 = getelementptr inbounds nuw i32, ptr %13, i64 %indvars.iv
  store i32 1, ptr %14, align 4
  %indvars.iv.next = add nuw nsw i64 %indvars.iv, 1
  %15 = load i32, ptr %2, align 4
  %16 = zext i32 %15 to i64
  %17 = icmp samesign ult i64 %indvars.iv.next, %16
  br i1 %17, label %12, label %._crit_edge, !llvm.loop !23

18:                                               ; preds = %1, %._crit_edge
  ret void
}